; Function Attrs: mustprogress uwtable
define dso_local void @_ZN12cmFileCopierC2ER17cmExecutionStatusPKc(ptr noundef nonnull align 8 dereferenceable(244) %0, ptr noundef nonnull align 8 dereferenceable(80) %1, ptr noundef %2) unnamed_addr #3 align 2 {
  store ptr getelementptr inbounds ({ [14 x ptr] }, ptr @_ZTV12cmFileCopier, i64 0, i32 0, i64 2), ptr %0, align 8
  %4 = getelementptr inbounds i8, ptr %0, i64 8
  store ptr %1, ptr %4, align 8
  %5 = getelementptr inbounds i8, ptr %0, i64 16
  %6 = load ptr, ptr %1, align 8
  store ptr %6, ptr %5, align 8
  %7 = getelementptr inbounds i8, ptr %0, i64 24
  store ptr %2, ptr %7, align 8
  %8 = getelementptr inbounds i8, ptr %0, i64 32
  store i8 0, ptr %8, align 8
  %9 = getelementptr inbounds i8, ptr %0, i64 40
  tail call void @_ZN15cmFileTimeCacheC1Ev(ptr noundef nonnull align 8 dereferenceable(56) %9)
  %10 = getelementptr inbounds i8, ptr %0, i64 96
  store i8 1, ptr %10, align 8
  %11 = getelementptr inbounds i8, ptr %0, i64 100
  store i32 0, ptr %11, align 4
  %12 = getelementptr inbounds i8, ptr %0, i64 104
  store i32 0, ptr %12, align 8
  %13 = getelementptr inbounds i8, ptr %0, i64 112
  %14 = getelementptr inbounds i8, ptr %0, i64 146
  tail call void @llvm.memset.p0.i64(ptr noundef nonnull align 8 dereferenceable(34) %13, i8 0, i64 34, i1 false)
  store i8 1, ptr %14, align 2
  %15 = getelementptr inbounds i8, ptr %0, i64 147
  store i8 0, ptr %15, align 1
  %16 = getelementptr inbounds i8, ptr %0, i64 152
  tail call void @_ZNSt7__cxx1112basic_stringIcSt11char_traitsIcESaIcEEC1Ev(ptr noundef nonnull align 8 dereferenceable(32) %16) #18
  %17 = getelementptr inbounds i8, ptr %0, i64 184
  tail call void @_ZNSt7__cxx1112basic_stringIcSt11char_traitsIcESaIcEEC1Ev(ptr noundef nonnull align 8 dereferenceable(32) %17) #18
  %18 = getelementptr inbounds i8, ptr %0, i64 216
  tail call void @llvm.memset.p0.i64(ptr noundef nonnull align 8 dereferenceable(28) %18, i8 0, i64 28, i1 false)
  ret void
}